target datalayout = "e-m:e-p270:32:32-p271:32:32-p272:64:64-i64:64-i128:128-f80:128-n8:16:32:64-S128"
target triple = "x86_64-pc-linux-gnu"

; Function Attrs: mustprogress nounwind uwtable
define noundef zeroext i1 @_ZNK7glslang13TIntermediate23isNonuniformPropagatingENS_9TOperatorE(ptr noundef nonnull align 8 dereferenceable(2024) %0, i32 noundef %1) #0 align 2 {
  %3 = alloca i1, align 1
  %4 = alloca ptr, align 8
  %5 = alloca i32, align 4
  store ptr %0, ptr %4, align 8
  store i32 %1, ptr %5, align 4
  %6 = load i32, ptr %5, align 4
  switch i32 %6, label %8 [
    i32 12, label %7
    i32 13, label %7
    i32 14, label %7
    i32 15, label %7
    i32 8, label %7
    i32 9, label %7
    i32 10, label %7
    i32 11, label %7
    i32 156, label %7
    i32 157, label %7
    i32 158, label %7
    i32 159, label %7
    i32 160, label %7
    i32 161, label %7
    i32 162, label %7
    i32 163, label %7
    i32 164, label %7
    i32 165, label %7
    i32 166, label %7
    i32 167, label %7
    i32 170, label %7
    i32 171, label %7
    i32 172, label %7
    i32 173, label %7
    i32 175, label %7
    i32 176, label %7
    i32 177, label %7
    i32 178, label %7
    i32 179, label %7
    i32 180, label %7
    i32 181, label %7
    i32 182, label %7
    i32 183, label %7
    i32 184, label %7
    i32 185, label %7
  ]

7:                                                ; preds = %2, %2, %2, %2, %2, %2, %2, %2, %2, %2, %2, %2, %2, %2, %2, %2, %2, %2, %2, %2, %2, %2, %2, %2, %2, %2, %2, %2, %2, %2, %2, %2, %2, %2, %2
  store i1 true, ptr %3, align 1
  br label %10

8:                                                ; preds = %2
  br label %9

9:                                                ; preds = %8
  store i1 false, ptr %3, align 1
  br label %10

10:                                               ; preds = %9, %7
  %11 = load i1, ptr %3, align 1
  ret i1 %11
}