; Function Attrs: mustprogress nofree norecurse nosync nounwind willreturn memory(none) uwtable
define noundef zeroext i1 @_ZNK7glslang13TIntermediate23isNonuniformPropagatingENS_9TOperatorE(ptr nocapture nonnull readnone align 8 %0, i32 noundef %1) local_unnamed_addr #2 align 2 {
  switch i32 %1, label %3 [
    i32 12, label %4
    i32 13, label %4
    i32 14, label %4
    i32 15, label %4
    i32 8, label %4
    i32 9, label %4
    i32 10, label %4
    i32 11, label %4
    i32 156, label %4
    i32 157, label %4
    i32 158, label %4
    i32 159, label %4
    i32 160, label %4
    i32 161, label %4
    i32 162, label %4
    i32 163, label %4
    i32 164, label %4
    i32 165, label %4
    i32 166, label %4
    i32 167, label %4
    i32 170, label %4
    i32 171, label %4
    i32 172, label %4
    i32 173, label %4
    i32 175, label %4
    i32 176, label %4
    i32 177, label %4
    i32 178, label %4
    i32 179, label %4
    i32 180, label %4
    i32 181, label %4
    i32 182, label %4
    i32 183, label %4
    i32 184, label %4
    i32 185, label %4
  ]

3:                                                ; preds = %2
  br label %4

4:                                                ; preds = %2, %2, %2, %2, %2, %2, %2, %2, %2, %2, %2, %2, %2, %2, %2, %2, %2, %2, %2, %2, %2, %2, %2, %2, %2, %2, %2, %2, %2, %2, %2, %2, %2, %2, %2, %3
  %.0 = phi i1 [ false, %3 ], [ true, %2 ], [ true, %2 ], [ true, %2 ], [ true, %2 ], [ true, %2 ], [ true, %2 ], [ true, %2 ], [ true, %2 ], [ true, %2 ], [ true, %2 ], [ true, %2 ], [ true, %2 ], [ true, %2 ], [ true, %2 ], [ true, %2 ], [ true, %2 ], [ true, %2 ], [ true, %2 ], [ true, %2 ], [ true, %2 ], [ true, %2 ], [ true, %2 ], [ true, %2 ], [ true, %2 ], [ true, %2 ], [ true, %2 ], [ true, %2 ], [ true, %2 ], [ true, %2 ], [ true, %2 ], [ true, %2 ], [ true, %2 ], [ true, %2 ], [ true, %2 ], [ true, %2 ]
  ret i1 %.0
}